; Function Attrs: mustprogress uwtable
define internal void @_ZNK9grpc_core11json_detail10AutoLoaderINS_12_GLOBAL__N_110RbacConfig10RbacPolicy5Rules6Policy9Principal13PrincipalListEE8LoadIntoERKNS_12experimental4JsonERKNS_8JsonArgsEPvPNS_16ValidationErrorsE(ptr nonnull readnone align 8 captures(none) %0, ptr noundef nonnull align 8 dereferenceable(56) %1, ptr noundef nonnull align 8 dereferenceable(8) %2, ptr noundef %3, ptr noundef %4) unnamed_addr #3 align 2 personality ptr @__gxx_personality_v0 {
  %6 = load atomic i8, ptr @_ZGVZN9grpc_core12_GLOBAL__N_110RbacConfig10RbacPolicy5Rules6Policy9Principal13PrincipalList10JsonLoaderERKNS_8JsonArgsEE6loader acquire, align 8
  %7 = icmp eq i8 %6, 0
  br i1 %7, label %8, label %_ZN9grpc_core12_GLOBAL__N_110RbacConfig10RbacPolicy5Rules6Policy9Principal13PrincipalList10JsonLoaderERKNS_8JsonArgsE.exit, !prof !197

8:                                                ; preds = %5
  %9 = tail call i32 @__cxa_guard_acquire(ptr nonnull @_ZGVZN9grpc_core12_GLOBAL__N_110RbacConfig10RbacPolicy5Rules6Policy9Principal13PrincipalList10JsonLoaderERKNS_8JsonArgsEE6loader) #26
  %.not.i = icmp eq i32 %9, 0
  br i1 %.not.i, label %_ZN9grpc_core12_GLOBAL__N_110RbacConfig10RbacPolicy5Rules6Policy9Principal13PrincipalList10JsonLoaderERKNS_8JsonArgsE.exit, label %10

10:                                               ; preds = %8
  %11 = invoke noalias noundef nonnull dereferenceable(40) ptr @_Znwm(i64 noundef 40) #28
          to label %12 unwind label %14

12:                                               ; preds = %10
  store ptr getelementptr inbounds nuw inrange(-16, 8) (i8, ptr @_ZTVN9grpc_core11json_detail24FinishedJsonObjectLoaderINS_12_GLOBAL__N_110RbacConfig10RbacPolicy5Rules6Policy9Principal13PrincipalListELm1EvEE, i64 16), ptr %11, align 8, !tbaa !9
  %13 = getelementptr inbounds nuw i8, ptr %11, i64 8
  store ptr @_ZN9grpc_core19NoDestructSingletonINS_11json_detail10AutoLoaderISt6vectorINS_12_GLOBAL__N_110RbacConfig10RbacPolicy5Rules6Policy9PrincipalESaIS9_EEEEE6value_E, ptr %13, align 8
  %.sroa.5.0..sroa_idx.i = getelementptr inbounds nuw i8, ptr %11, i64 16
  store i16 0, ptr %.sroa.5.0..sroa_idx.i, align 8
  %.sroa.6.0..sroa_idx.i = getelementptr inbounds nuw i8, ptr %11, i64 18
  store i8 0, ptr %.sroa.6.0..sroa_idx.i, align 2
  %.sroa.72.0..sroa_idx.i = getelementptr inbounds nuw i8, ptr %11, i64 24
  store ptr @.str.88, ptr %.sroa.72.0..sroa_idx.i, align 8
  %.sroa.8.0..sroa_idx.i = getelementptr inbounds nuw i8, ptr %11, i64 32
  store ptr null, ptr %.sroa.8.0..sroa_idx.i, align 8, !tbaa !41
  store ptr %11, ptr @_ZZN9grpc_core12_GLOBAL__N_110RbacConfig10RbacPolicy5Rules6Policy9Principal13PrincipalList10JsonLoaderERKNS_8JsonArgsEE6loader, align 8, !tbaa !420
  tail call void @__cxa_guard_release(ptr nonnull @_ZGVZN9grpc_core12_GLOBAL__N_110RbacConfig10RbacPolicy5Rules6Policy9Principal13PrincipalList10JsonLoaderERKNS_8JsonArgsEE6loader) #26
  br label %_ZN9grpc_core12_GLOBAL__N_110RbacConfig10RbacPolicy5Rules6Policy9Principal13PrincipalList10JsonLoaderERKNS_8JsonArgsE.exit

14:                                               ; preds = %10
  %15 = landingpad { ptr, i32 }
          cleanup
  tail call void @__cxa_guard_abort(ptr nonnull @_ZGVZN9grpc_core12_GLOBAL__N_110RbacConfig10RbacPolicy5Rules6Policy9Principal13PrincipalList10JsonLoaderERKNS_8JsonArgsEE6loader) #26
  resume { ptr, i32 } %15

_ZN9grpc_core12_GLOBAL__N_110RbacConfig10RbacPolicy5Rules6Policy9Principal13PrincipalList10JsonLoaderERKNS_8JsonArgsE.exit: ; preds = %5, %8, %12
  %16 = load ptr, ptr @_ZZN9grpc_core12_GLOBAL__N_110RbacConfig10RbacPolicy5Rules6Policy9Principal13PrincipalList10JsonLoaderERKNS_8JsonArgsEE6loader, align 8, !tbaa !420
  %17 = load ptr, ptr %16, align 8, !tbaa !9
  %18 = load ptr, ptr %17, align 8
  tail call void %18(ptr noundef nonnull align 8 dereferenceable(8) %16, ptr noundef nonnull align 8 dereferenceable(56) %1, ptr noundef nonnull align 8 dereferenceable(8) %2, ptr noundef %3, ptr noundef %4)
  ret void
}